; Function Attrs: mustprogress uwtable
define hidden void @_ZN2cv8tinyxml210XMLPrinter8PushTextEi(ptr noundef nonnull align 8 dereferenceable(312) initializes((132, 136)) %0, i32 noundef %1) local_unnamed_addr #4 align 2 {
  %3 = alloca [200 x i8], align 16
  call void @llvm.lifetime.start.p0(i64 200, ptr nonnull %3) #24
  %4 = call i32 (ptr, i64, ptr, ...) @snprintf(ptr noundef nonnull dereferenceable(1) %3, i64 noundef 200, ptr noundef nonnull @.str, i32 noundef %1) #24
  %5 = getelementptr inbounds nuw i8, ptr %0, i64 128
  %6 = load i32, ptr %5, align 8, !tbaa !165
  %7 = add nsw i32 %6, -1
  %8 = getelementptr inbounds nuw i8, ptr %0, i64 132
  store i32 %7, ptr %8, align 4, !tbaa !166
  %9 = getelementptr inbounds nuw i8, ptr %0, i64 8
  %10 = load i8, ptr %9, align 8, !tbaa !153, !range !119, !noundef !120
  %11 = trunc nuw i8 %10 to i1
  br i1 %11, label %12, label %_ZN2cv8tinyxml210XMLPrinter8PushTextEPKcb.exit

12:                                               ; preds = %2
  store i8 0, ptr %9, align 8, !tbaa !153
  tail call void (ptr, ptr, ...) @_ZN2cv8tinyxml210XMLPrinter5PrintEPKcz(ptr noundef nonnull align 8 dereferenceable(312) %0, ptr noundef nonnull @.str.16)
  br label %_ZN2cv8tinyxml210XMLPrinter8PushTextEPKcb.exit

_ZN2cv8tinyxml210XMLPrinter8PushTextEPKcb.exit:   ; preds = %2, %12
  %13 = getelementptr inbounds nuw i8, ptr %0, i64 202
  %14 = getelementptr inbounds nuw i8, ptr %0, i64 136
  %15 = load i8, ptr %14, align 8, !tbaa !167, !range !119, !noundef !120
  %16 = trunc nuw i8 %15 to i1
  br i1 %16, label %.preheader33.i, label %.loopexit34.thread.i

.preheader33.i:                                   ; preds = %_ZN2cv8tinyxml210XMLPrinter8PushTextEPKcb.exit
  %17 = load i8, ptr %3, align 16, !tbaa !12
  %.not37.i = icmp eq i8 %17, 0
  br i1 %.not37.i, label %.loopexit34.i, label %.lr.ph40.i

.lr.ph40.i:                                       ; preds = %.preheader33.i, %39
  %18 = phi i8 [ %41, %39 ], [ %17, %.preheader33.i ]
  %.139.i = phi ptr [ %.2.i, %39 ], [ %3, %.preheader33.i ]
  %.12338.i = phi ptr [ %40, %39 ], [ %3, %.preheader33.i ]
  %or.cond.i = icmp ult i8 %18, 64
  br i1 %or.cond.i, label %19, label %39

19:                                               ; preds = %.lr.ph40.i
  %20 = zext nneg i8 %18 to i64
  %21 = getelementptr inbounds nuw i8, ptr %13, i64 %20
  %22 = load i8, ptr %21, align 1, !tbaa !30, !range !119, !noundef !120
  %23 = trunc nuw i8 %22 to i1
  br i1 %23, label %.preheader32.i, label %39

.preheader32.i:                                   ; preds = %19
  %24 = icmp ult ptr %.139.i, %.12338.i
  br i1 %24, label %.lr.ph.i, label %.preheader.i

.preheader.loopexit.i:                            ; preds = %.lr.ph.i
  %.pre.i = load i8, ptr %.12338.i, align 1, !tbaa !12
  br label %.preheader.i

.preheader.i:                                     ; preds = %.preheader.loopexit.i, %.preheader32.i
  %25 = phi i8 [ %18, %.preheader32.i ], [ %.pre.i, %.preheader.loopexit.i ]
  %.3.lcssa.i = phi ptr [ %.139.i, %.preheader32.i ], [ %28, %.preheader.loopexit.i ]
  br label %31

.lr.ph.i:                                         ; preds = %.preheader32.i, %.lr.ph.i
  %.335.i = phi ptr [ %28, %.lr.ph.i ], [ %.139.i, %.preheader32.i ]
  %26 = load i8, ptr %.335.i, align 1, !tbaa !12
  %27 = sext i8 %26 to i32
  call void (ptr, ptr, ...) @_ZN2cv8tinyxml210XMLPrinter5PrintEPKcz(ptr noundef nonnull align 8 dereferenceable(312) %0, ptr noundef nonnull @.str.23, i32 noundef %27)
  %28 = getelementptr inbounds nuw i8, ptr %.335.i, i64 1
  %29 = icmp ult ptr %28, %.12338.i
  br i1 %29, label %.lr.ph.i, label %.preheader.loopexit.i, !llvm.loop !175

30:                                               ; preds = %31
  %indvars.iv.next.i = add nuw nsw i64 %indvars.iv.i, 1
  %exitcond.not.i = icmp eq i64 %indvars.iv.next.i, 5
  br i1 %exitcond.not.i, label %.loopexit.i, label %31, !llvm.loop !176

31:                                               ; preds = %30, %.preheader.i
  %indvars.iv.i = phi i64 [ 0, %.preheader.i ], [ %indvars.iv.next.i, %30 ]
  %32 = getelementptr inbounds nuw [5 x %"struct.cv::tinyxml2::Entity"], ptr @_ZN2cv8tinyxml2L8entitiesE, i64 0, i64 %indvars.iv.i
  %33 = getelementptr inbounds nuw i8, ptr %32, i64 12
  %34 = load i8, ptr %33, align 4, !tbaa !23
  %35 = icmp eq i8 %34, %25
  br i1 %35, label %36, label %30

36:                                               ; preds = %31
  %37 = load ptr, ptr %32, align 16, !tbaa !20
  call void (ptr, ptr, ...) @_ZN2cv8tinyxml210XMLPrinter5PrintEPKcz(ptr noundef nonnull align 8 dereferenceable(312) %0, ptr noundef nonnull @.str.24, ptr noundef %37)
  br label %.loopexit.i

.loopexit.i:                                      ; preds = %30, %36
  %38 = getelementptr inbounds nuw i8, ptr %.3.lcssa.i, i64 1
  br label %39

39:                                               ; preds = %.loopexit.i, %19, %.lr.ph40.i
  %.2.i = phi ptr [ %38, %.loopexit.i ], [ %.139.i, %19 ], [ %.139.i, %.lr.ph40.i ]
  %40 = getelementptr inbounds nuw i8, ptr %.12338.i, i64 1
  %41 = load i8, ptr %40, align 1, !tbaa !12
  %.not.i = icmp eq i8 %41, 0
  br i1 %.not.i, label %.loopexit34.loopexit.i, label %.lr.ph40.i, !llvm.loop !177

.loopexit34.loopexit.i:                           ; preds = %39
  %.pre47.i = load i8, ptr %14, align 8, !tbaa !167, !range !119
  %.pre48.i = trunc nuw i8 %.pre47.i to i1
  br label %.loopexit34.i

.loopexit34.i:                                    ; preds = %.loopexit34.loopexit.i, %.preheader33.i
  %.pre-phi.i = phi i1 [ %.pre48.i, %.loopexit34.loopexit.i ], [ true, %.preheader33.i ]
  %.022.i = phi ptr [ %40, %.loopexit34.loopexit.i ], [ %3, %.preheader33.i ]
  %.021.i = phi ptr [ %.2.i, %.loopexit34.loopexit.i ], [ %3, %.preheader33.i ]
  %42 = ptrtoint ptr %.022.i to i64
  %43 = ptrtoint ptr %.021.i to i64
  %44 = sub i64 %42, %43
  %45 = icmp slt i64 %44, 1
  %or.cond30.not.i = select i1 %.pre-phi.i, i1 %45, i1 false
  br i1 %or.cond30.not.i, label %_ZN2cv8tinyxml210XMLPrinter11PrintStringEPKcb.exit, label %.loopexit34.thread.i

.loopexit34.thread.i:                             ; preds = %.loopexit34.i, %_ZN2cv8tinyxml210XMLPrinter8PushTextEPKcb.exit
  %.02153.i = phi ptr [ %.021.i, %.loopexit34.i ], [ %3, %_ZN2cv8tinyxml210XMLPrinter8PushTextEPKcb.exit ]
  call void (ptr, ptr, ...) @_ZN2cv8tinyxml210XMLPrinter5PrintEPKcz(ptr noundef nonnull align 8 dereferenceable(312) %0, ptr noundef nonnull @.str.20, ptr noundef %.02153.i)
  br label %_ZN2cv8tinyxml210XMLPrinter11PrintStringEPKcb.exit

_ZN2cv8tinyxml210XMLPrinter11PrintStringEPKcb.exit: ; preds = %.loopexit34.i, %.loopexit34.thread.i
  call void @llvm.lifetime.end.p0(i64 200, ptr nonnull %3) #24
  ret void
}